target datalayout = "e-m:e-p270:32:32-p271:32:32-p272:64:64-i64:64-i128:128-f80:128-n8:16:32:64-S128"
target triple = "x86_64-pc-linux-gnu"

%struct.UBiDi = type { ptr, ptr, i32, i32, i32, i32, i32, i32, i32, i32, i32, ptr, ptr, ptr, ptr, ptr, ptr, i8, i8, ptr, ptr, i8, i32, i32, i8, i8, i8, ptr, i32, ptr, i32, ptr, i32, i32, i32, i32, i32, ptr, [10 x %struct.Para], i32, ptr, [1 x %struct.Run], i32, ptr, [5 x %struct.Isolate], %struct.InsertPoints, i32, ptr, ptr }
%struct.Para = type { i32, i32 }
%struct.Run = type { i32, i32, i32 }
%struct.Isolate = type { i32, i32, i32, i16 }
%struct.InsertPoints = type { i32, i32, i32, i32, ptr }

; Function Attrs: mustprogress nounwind uwtable
define zeroext i8 @ubidi_getParaLevelAtIndex_77(ptr noundef %0, i32 noundef %1) #7 {
  %3 = alloca ptr, align 8
  %4 = alloca i32, align 4
  %5 = alloca i32, align 4
  store ptr %0, ptr %3, align 8, !tbaa !11
  store i32 %1, ptr %4, align 4, !tbaa !7
  call void @llvm.lifetime.start.p0(i64 4, ptr %5) #10
  store i32 0, ptr %5, align 4, !tbaa !7
  br label %6

6:                                                ; preds = %25, %2
  %7 = load i32, ptr %5, align 4, !tbaa !7
  %8 = load ptr, ptr %3, align 8, !tbaa !11
  %9 = getelementptr inbounds nuw %struct.UBiDi, ptr %8, i32 0, i32 36
  %10 = load i32, ptr %9, align 8, !tbaa !54
  %11 = icmp slt i32 %7, %10
  br i1 %11, label %12, label %28

12:                                               ; preds = %6
  %13 = load i32, ptr %4, align 4, !tbaa !7
  %14 = load ptr, ptr %3, align 8, !tbaa !11
  %15 = getelementptr inbounds nuw %struct.UBiDi, ptr %14, i32 0, i32 37
  %16 = load ptr, ptr %15, align 8, !tbaa !55
  %17 = load i32, ptr %5, align 4, !tbaa !7
  %18 = sext i32 %17 to i64
  %19 = getelementptr inbounds %struct.Para, ptr %16, i64 %18
  %20 = getelementptr inbounds nuw %struct.Para, ptr %19, i32 0, i32 0
  %21 = load i32, ptr %20, align 4, !tbaa !56
  %22 = icmp slt i32 %13, %21
  br i1 %22, label %23, label %24

23:                                               ; preds = %12
  br label %28

24:                                               ; preds = %12
  br label %25

25:                                               ; preds = %24
  %26 = load i32, ptr %5, align 4, !tbaa !7
  %27 = add nsw i32 %26, 1
  store i32 %27, ptr %5, align 4, !tbaa !7
  br label %6, !llvm.loop !58

28:                                               ; preds = %23, %6
  %29 = load i32, ptr %5, align 4, !tbaa !7
  %30 = load ptr, ptr %3, align 8, !tbaa !11
  %31 = getelementptr inbounds nuw %struct.UBiDi, ptr %30, i32 0, i32 36
  %32 = load i32, ptr %31, align 8, !tbaa !54
  %33 = icmp sge i32 %29, %32
  br i1 %33, label %34, label %39

34:                                               ; preds = %28
  %35 = load ptr, ptr %3, align 8, !tbaa !11
  %36 = getelementptr inbounds nuw %struct.UBiDi, ptr %35, i32 0, i32 36
  %37 = load i32, ptr %36, align 8, !tbaa !54
  %38 = sub nsw i32 %37, 1
  store i32 %38, ptr %5, align 4, !tbaa !7
  br label %39

39:                                               ; preds = %34, %28
  %40 = load ptr, ptr %3, align 8, !tbaa !11
  %41 = getelementptr inbounds nuw %struct.UBiDi, ptr %40, i32 0, i32 37
  %42 = load ptr, ptr %41, align 8, !tbaa !55
  %43 = load i32, ptr %5, align 4, !tbaa !7
  %44 = sext i32 %43 to i64
  %45 = getelementptr inbounds %struct.Para, ptr %42, i64 %44
  %46 = getelementptr inbounds nuw %struct.Para, ptr %45, i32 0, i32 1
  %47 = load i32, ptr %46, align 4, !tbaa !59
  %48 = trunc i32 %47 to i8
  call void @llvm.lifetime.end.p0(i64 4, ptr %5) #10
  ret i8 %48
}

; Function Attrs: mustprogress nounwind uwtable
define internal void @_ZL14adjustWSLevelsP5UBiDi(ptr noundef %0) #7 {
  %2 = alloca ptr, align 8
  %3 = alloca ptr, align 8
  %4 = alloca ptr, align 8
  %5 = alloca i32, align 4
  %6 = alloca i8, align 1
  %7 = alloca i32, align 4
  store ptr %0, ptr %2, align 8, !tbaa !11
  call void @llvm.lifetime.start.p0(i64 8, ptr %3) #10
  %8 = load ptr, ptr %2, align 8, !tbaa !11
  %9 = getelementptr inbounds nuw %struct.UBiDi, ptr %8, i32 0, i32 19
  %10 = load ptr, ptr %9, align 8, !tbaa !71
  store ptr %10, ptr %3, align 8, !tbaa !64
  call void @llvm.lifetime.start.p0(i64 8, ptr %4) #10
  %11 = load ptr, ptr %2, align 8, !tbaa !11
  %12 = getelementptr inbounds nuw %struct.UBiDi, ptr %11, i32 0, i32 20
  %13 = load ptr, ptr %12, align 8, !tbaa !72
  store ptr %13, ptr %4, align 8, !tbaa !64
  call void @llvm.lifetime.start.p0(i64 4, ptr %5) #10
  %14 = load ptr, ptr %2, align 8, !tbaa !11
  %15 = getelementptr inbounds nuw %struct.UBiDi, ptr %14, i32 0, i32 33
  %16 = load i32, ptr %15, align 4, !tbaa !77
  %17 = zext i32 %16 to i64
  %18 = and i64 %17, 8248192
  %19 = icmp ne i64 %18, 0
  br i1 %19, label %20, label %173

20:                                               ; preds = %1
  call void @llvm.lifetime.start.p0(i64 1, ptr %6) #10
  %21 = load ptr, ptr %2, align 8, !tbaa !11
  %22 = getelementptr inbounds nuw %struct.UBiDi, ptr %21, i32 0, i32 24
  %23 = load i8, ptr %22, align 4, !tbaa !107
  store i8 %23, ptr %6, align 1, !tbaa !30
  call void @llvm.lifetime.start.p0(i64 4, ptr %7) #10
  %24 = load ptr, ptr %2, align 8, !tbaa !11
  %25 = getelementptr inbounds nuw %struct.UBiDi, ptr %24, i32 0, i32 35
  %26 = load i32, ptr %25, align 4, !tbaa !79
  store i32 %26, ptr %5, align 4, !tbaa !7
  br label %27

27:                                               ; preds = %171, %20
  %28 = load i32, ptr %5, align 4, !tbaa !7
  %29 = icmp sgt i32 %28, 0
  br i1 %29, label %30, label %172

30:                                               ; preds = %27
  br label %31

31:                                               ; preds = %91, %30
  %32 = load i32, ptr %5, align 4, !tbaa !7
  %33 = icmp sgt i32 %32, 0
  br i1 %33, label %34, label %48

34:                                               ; preds = %31
  %35 = load ptr, ptr %3, align 8, !tbaa !64
  %36 = load i32, ptr %5, align 4, !tbaa !7
  %37 = add nsw i32 %36, -1
  store i32 %37, ptr %5, align 4, !tbaa !7
  %38 = sext i32 %37 to i64
  %39 = getelementptr inbounds i8, ptr %35, i64 %38
  %40 = load i8, ptr %39, align 1, !tbaa !30
  %41 = zext i8 %40 to i32
  %42 = zext i32 %41 to i64
  %43 = shl i64 1, %42
  %44 = trunc i64 %43 to i32
  store i32 %44, ptr %7, align 4, !tbaa !7
  %45 = zext i32 %44 to i64
  %46 = and i64 %45, 8248192
  %47 = icmp ne i64 %46, 0
  br label %48

48:                                               ; preds = %34, %31
  %49 = phi i1 [ false, %31 ], [ %47, %34 ]
  br i1 %49, label %50, label %92

50:                                               ; preds = %48
  %51 = load i8, ptr %6, align 1, !tbaa !30
  %52 = icmp ne i8 %51, 0
  br i1 %52, label %53, label %63

53:                                               ; preds = %50
  %54 = load i32, ptr %7, align 4, !tbaa !7
  %55 = zext i32 %54 to i64
  %56 = and i64 %55, 128
  %57 = icmp ne i64 %56, 0
  br i1 %57, label %58, label %63

58:                                               ; preds = %53
  %59 = load ptr, ptr %4, align 8, !tbaa !64
  %60 = load i32, ptr %5, align 4, !tbaa !7
  %61 = sext i32 %60 to i64
  %62 = getelementptr inbounds i8, ptr %59, i64 %61
  store i8 0, ptr %62, align 1, !tbaa !30
  br label %91

63:                                               ; preds = %53, %50
  %64 = load ptr, ptr %2, align 8, !tbaa !11
  %65 = getelementptr inbounds nuw %struct.UBiDi, ptr %64, i32 0, i32 26
  %66 = load i8, ptr %65, align 2, !tbaa !76
  %67 = icmp ne i8 %66, 0
  br i1 %67, label %68, label %77

68:                                               ; preds = %63
  %69 = load i32, ptr %5, align 4, !tbaa !7
  %70 = load ptr, ptr %2, align 8, !tbaa !11
  %71 = getelementptr inbounds nuw %struct.UBiDi, ptr %70, i32 0, i32 37
  %72 = load ptr, ptr %71, align 8, !tbaa !55
  %73 = getelementptr inbounds %struct.Para, ptr %72, i64 0
  %74 = getelementptr inbounds nuw %struct.Para, ptr %73, i32 0, i32 0
  %75 = load i32, ptr %74, align 4, !tbaa !56
  %76 = icmp slt i32 %69, %75
  br i1 %76, label %77, label %81

77:                                               ; preds = %68, %63
  %78 = load ptr, ptr %2, align 8, !tbaa !11
  %79 = getelementptr inbounds nuw %struct.UBiDi, ptr %78, i32 0, i32 25
  %80 = load i8, ptr %79, align 1, !tbaa !69
  br label %85

81:                                               ; preds = %68
  %82 = load ptr, ptr %2, align 8, !tbaa !11
  %83 = load i32, ptr %5, align 4, !tbaa !7
  %84 = call zeroext i8 @ubidi_getParaLevelAtIndex_77(ptr noundef %82, i32 noundef %83)
  br label %85

85:                                               ; preds = %81, %77
  %86 = phi i8 [ %80, %77 ], [ %84, %81 ]
  %87 = load ptr, ptr %4, align 8, !tbaa !64
  %88 = load i32, ptr %5, align 4, !tbaa !7
  %89 = sext i32 %88 to i64
  %90 = getelementptr inbounds i8, ptr %87, i64 %89
  store i8 %86, ptr %90, align 1, !tbaa !30
  br label %91

91:                                               ; preds = %85, %58
  br label %31, !llvm.loop !134

92:                                               ; preds = %48
  br label %93

93:                                               ; preds = %170, %92
  %94 = load i32, ptr %5, align 4, !tbaa !7
  %95 = icmp sgt i32 %94, 0
  br i1 %95, label %96, label %171

96:                                               ; preds = %93
  %97 = load ptr, ptr %3, align 8, !tbaa !64
  %98 = load i32, ptr %5, align 4, !tbaa !7
  %99 = add nsw i32 %98, -1
  store i32 %99, ptr %5, align 4, !tbaa !7
  %100 = sext i32 %99 to i64
  %101 = getelementptr inbounds i8, ptr %97, i64 %100
  %102 = load i8, ptr %101, align 1, !tbaa !30
  %103 = zext i8 %102 to i32
  %104 = zext i32 %103 to i64
  %105 = shl i64 1, %104
  %106 = trunc i64 %105 to i32
  store i32 %106, ptr %7, align 4, !tbaa !7
  %107 = load i32, ptr %7, align 4, !tbaa !7
  %108 = zext i32 %107 to i64
  %109 = and i64 %108, 382976
  %110 = icmp ne i64 %109, 0
  br i1 %110, label %111, label %122

111:                                              ; preds = %96
  %112 = load ptr, ptr %4, align 8, !tbaa !64
  %113 = load i32, ptr %5, align 4, !tbaa !7
  %114 = add nsw i32 %113, 1
  %115 = sext i32 %114 to i64
  %116 = getelementptr inbounds i8, ptr %112, i64 %115
  %117 = load i8, ptr %116, align 1, !tbaa !30
  %118 = load ptr, ptr %4, align 8, !tbaa !64
  %119 = load i32, ptr %5, align 4, !tbaa !7
  %120 = sext i32 %119 to i64
  %121 = getelementptr inbounds i8, ptr %118, i64 %120
  store i8 %117, ptr %121, align 1, !tbaa !30
  br label %170

122:                                              ; preds = %96
  %123 = load i8, ptr %6, align 1, !tbaa !30
  %124 = icmp ne i8 %123, 0
  br i1 %124, label %125, label %135

125:                                              ; preds = %122
  %126 = load i32, ptr %7, align 4, !tbaa !7
  %127 = zext i32 %126 to i64
  %128 = and i64 %127, 128
  %129 = icmp ne i64 %128, 0
  br i1 %129, label %130, label %135

130:                                              ; preds = %125
  %131 = load ptr, ptr %4, align 8, !tbaa !64
  %132 = load i32, ptr %5, align 4, !tbaa !7
  %133 = sext i32 %132 to i64
  %134 = getelementptr inbounds i8, ptr %131, i64 %133
  store i8 0, ptr %134, align 1, !tbaa !30
  br label %171

135:                                              ; preds = %125, %122
  %136 = load i32, ptr %7, align 4, !tbaa !7
  %137 = zext i32 %136 to i64
  %138 = and i64 %137, 384
  %139 = icmp ne i64 %138, 0
  br i1 %139, label %140, label %168

140:                                              ; preds = %135
  %141 = load ptr, ptr %2, align 8, !tbaa !11
  %142 = getelementptr inbounds nuw %struct.UBiDi, ptr %141, i32 0, i32 26
  %143 = load i8, ptr %142, align 2, !tbaa !76
  %144 = icmp ne i8 %143, 0
  br i1 %144, label %145, label %154

145:                                              ; preds = %140
  %146 = load i32, ptr %5, align 4, !tbaa !7
  %147 = load ptr, ptr %2, align 8, !tbaa !11
  %148 = getelementptr inbounds nuw %struct.UBiDi, ptr %147, i32 0, i32 37
  %149 = load ptr, ptr %148, align 8, !tbaa !55
  %150 = getelementptr inbounds %struct.Para, ptr %149, i64 0
  %151 = getelementptr inbounds nuw %struct.Para, ptr %150, i32 0, i32 0
  %152 = load i32, ptr %151, align 4, !tbaa !56
  %153 = icmp slt i32 %146, %152
  br i1 %153, label %154, label %158

154:                                              ; preds = %145, %140
  %155 = load ptr, ptr %2, align 8, !tbaa !11
  %156 = getelementptr inbounds nuw %struct.UBiDi, ptr %155, i32 0, i32 25
  %157 = load i8, ptr %156, align 1, !tbaa !69
  br label %162

158:                                              ; preds = %145
  %159 = load ptr, ptr %2, align 8, !tbaa !11
  %160 = load i32, ptr %5, align 4, !tbaa !7
  %161 = call zeroext i8 @ubidi_getParaLevelAtIndex_77(ptr noundef %159, i32 noundef %160)
  br label %162

162:                                              ; preds = %158, %154
  %163 = phi i8 [ %157, %154 ], [ %161, %158 ]
  %164 = load ptr, ptr %4, align 8, !tbaa !64
  %165 = load i32, ptr %5, align 4, !tbaa !7
  %166 = sext i32 %165 to i64
  %167 = getelementptr inbounds i8, ptr %164, i64 %166
  store i8 %163, ptr %167, align 1, !tbaa !30
  br label %171

168:                                              ; preds = %135
  br label %169

169:                                              ; preds = %168
  br label %170

170:                                              ; preds = %169, %111
  br label %93, !llvm.loop !135

171:                                              ; preds = %162, %130, %93
  br label %27, !llvm.loop !136

172:                                              ; preds = %27
  call void @llvm.lifetime.end.p0(i64 4, ptr %7) #10
  call void @llvm.lifetime.end.p0(i64 1, ptr %6) #10
  br label %173

173:                                              ; preds = %172, %1
  call void @llvm.lifetime.end.p0(i64 4, ptr %5) #10
  call void @llvm.lifetime.end.p0(i64 8, ptr %4) #10
  call void @llvm.lifetime.end.p0(i64 8, ptr %3) #10
  ret void
}