; Function Attrs: mustprogress nofree norecurse nosync nounwind memory(readwrite, inaccessiblemem: none) uwtable
define internal fastcc void @_ZL14adjustWSLevelsP5UBiDi(ptr noundef nonnull readonly captures(none) %0) unnamed_addr #9 {
  %2 = getelementptr inbounds nuw i8, ptr %0, i64 112
  %3 = load ptr, ptr %2, align 8, !tbaa !76
  %4 = getelementptr inbounds nuw i8, ptr %0, i64 120
  %5 = load ptr, ptr %4, align 8, !tbaa !70
  %6 = getelementptr inbounds nuw i8, ptr %0, i64 188
  %7 = load i32, ptr %6, align 4, !tbaa !75
  %8 = and i32 %7, 8248192
  %.not = icmp eq i32 %8, 0
  br i1 %.not, label %.loopexit64, label %9

9:                                                ; preds = %1
  %10 = getelementptr inbounds nuw i8, ptr %0, i64 196
  %11 = load i32, ptr %10, align 4, !tbaa !52
  %12 = icmp sgt i32 %11, 0
  br i1 %12, label %.preheader.lr.ph, label %.loopexit64

.preheader.lr.ph:                                 ; preds = %9
  %13 = getelementptr inbounds nuw i8, ptr %0, i64 140
  %14 = load i8, ptr %13, align 4, !tbaa !84
  %.not50 = icmp eq i8 %14, 0
  %15 = getelementptr inbounds nuw i8, ptr %0, i64 142
  %16 = getelementptr inbounds nuw i8, ptr %0, i64 208
  %17 = getelementptr inbounds nuw i8, ptr %0, i64 200
  %18 = getelementptr inbounds nuw i8, ptr %0, i64 141
  br label %.preheader

.preheader:                                       ; preds = %.preheader.lr.ph, %.loopexit
  %.074 = phi i32 [ %11, %.preheader.lr.ph ], [ %.4, %.loopexit ]
  %19 = zext nneg i32 %.074 to i64
  br label %20

20:                                               ; preds = %.preheader, %52
  %indvars.iv = phi i64 [ %19, %.preheader ], [ %indvars.iv.next, %52 ]
  %indvars.iv.next = add nsw i64 %indvars.iv, -1
  %21 = and i64 %indvars.iv.next, 4294967295
  %22 = getelementptr inbounds nuw i8, ptr %3, i64 %21
  %23 = load i8, ptr %22, align 1, !tbaa !59
  %24 = zext nneg i8 %23 to i64
  %25 = shl nuw i64 1, %24
  %26 = and i64 %25, 8248192
  %.not43 = icmp eq i64 %26, 0
  br i1 %.not43, label %.critedge, label %27

27:                                               ; preds = %20
  %28 = and i64 %25, 128
  %.not51 = icmp eq i64 %28, 0
  %or.cond = or i1 %.not50, %.not51
  br i1 %or.cond, label %29, label %52

29:                                               ; preds = %27
  %30 = load i8, ptr %15, align 2, !tbaa !74
  %.not52 = icmp eq i8 %30, 0
  br i1 %.not52, label %35, label %31

31:                                               ; preds = %29
  %32 = load ptr, ptr %16, align 8, !tbaa !41
  %33 = load i32, ptr %32, align 4, !tbaa !42
  %34 = trunc nuw i64 %indvars.iv to i32
  %.not53 = icmp slt i32 %33, %34
  br i1 %.not53, label %37, label %35

35:                                               ; preds = %31, %29
  %36 = load i8, ptr %18, align 1, !tbaa !66
  br label %52

37:                                               ; preds = %31
  %38 = load i32, ptr %17, align 8, !tbaa !40
  %39 = icmp sgt i32 %38, 0
  br i1 %39, label %.lr.ph.i, label %._crit_edge.thread.i

.lr.ph.i:                                         ; preds = %37
  %wide.trip.count.i = zext nneg i32 %38 to i64
  br label %40

40:                                               ; preds = %43, %.lr.ph.i
  %indvars.iv.i = phi i64 [ 0, %.lr.ph.i ], [ %indvars.iv.next.i, %43 ]
  %41 = getelementptr inbounds nuw %struct.Para, ptr %32, i64 %indvars.iv.i
  %42 = load i32, ptr %41, align 4, !tbaa !42
  %.not62 = icmp slt i32 %42, %34
  br i1 %.not62, label %43, label %45

43:                                               ; preds = %40
  %indvars.iv.next.i = add nuw nsw i64 %indvars.iv.i, 1
  %exitcond.not.i = icmp eq i64 %indvars.iv.next.i, %wide.trip.count.i
  br i1 %exitcond.not.i, label %._crit_edge.thread.i, label %40, !llvm.loop !44

._crit_edge.thread.i:                             ; preds = %43, %37
  %44 = add nsw i32 %38, -1
  br label %ubidi_getParaLevelAtIndex_77.exit

45:                                               ; preds = %40
  %46 = trunc nuw nsw i64 %indvars.iv.i to i32
  br label %ubidi_getParaLevelAtIndex_77.exit

ubidi_getParaLevelAtIndex_77.exit:                ; preds = %._crit_edge.thread.i, %45
  %47 = phi i32 [ %46, %45 ], [ %44, %._crit_edge.thread.i ]
  %48 = sext i32 %47 to i64
  %49 = getelementptr inbounds %struct.Para, ptr %32, i64 %48, i32 1
  %50 = load i32, ptr %49, align 4, !tbaa !46
  %51 = trunc i32 %50 to i8
  br label %52

52:                                               ; preds = %35, %ubidi_getParaLevelAtIndex_77.exit, %27
  %.sink = phi i8 [ 0, %27 ], [ %36, %35 ], [ %51, %ubidi_getParaLevelAtIndex_77.exit ]
  %53 = getelementptr inbounds nuw i8, ptr %5, i64 %21
  store i8 %.sink, ptr %53, align 1, !tbaa !59
  %54 = trunc nuw i64 %indvars.iv to i32
  %55 = icmp sgt i32 %54, 1
  br i1 %55, label %20, label %.loopexit64, !llvm.loop !138

.critedge:                                        ; preds = %20
  %indvars.le = trunc i64 %indvars.iv.next to i32
  %56 = icmp sgt i32 %indvars.le, 0
  br i1 %56, label %.lr.ph.preheader, label %.loopexit64

.lr.ph.preheader:                                 ; preds = %.critedge
  %57 = and i64 %indvars.iv.next, 2147483647
  br label %.lr.ph

.lr.ph:                                           ; preds = %.lr.ph.preheader, %94
  %indvars.iv85 = phi i64 [ %57, %.lr.ph.preheader ], [ %indvars.iv.next86, %94 ]
  %indvars.iv.next86 = add nsw i64 %indvars.iv85, -1
  %58 = getelementptr inbounds nuw i8, ptr %3, i64 %indvars.iv.next86
  %59 = load i8, ptr %58, align 1, !tbaa !59
  %60 = zext nneg i8 %59 to i64
  %61 = shl nuw i64 1, %60
  %62 = and i64 %61, 382976
  %.not44 = icmp eq i64 %62, 0
  br i1 %.not44, label %67, label %63

63:                                               ; preds = %.lr.ph
  %64 = getelementptr inbounds nuw i8, ptr %5, i64 %indvars.iv85
  %65 = load i8, ptr %64, align 1, !tbaa !59
  %66 = getelementptr inbounds nuw i8, ptr %5, i64 %indvars.iv.next86
  store i8 %65, ptr %66, align 1, !tbaa !59
  br label %94

67:                                               ; preds = %.lr.ph
  %68 = and i64 %61, 128
  %.not46 = icmp eq i64 %68, 0
  %or.cond54 = or i1 %.not50, %.not46
  br i1 %or.cond54, label %69, label %.loopexit

69:                                               ; preds = %67
  %70 = and i64 %61, 384
  %.not47 = icmp eq i64 %70, 0
  br i1 %.not47, label %94, label %71

71:                                               ; preds = %69
  %72 = trunc nuw nsw i64 %indvars.iv85 to i32
  %73 = load i8, ptr %15, align 2, !tbaa !74
  %.not48 = icmp eq i8 %73, 0
  br i1 %.not48, label %77, label %74

74:                                               ; preds = %71
  %75 = load ptr, ptr %16, align 8, !tbaa !41
  %76 = load i32, ptr %75, align 4, !tbaa !42
  %.not49 = icmp slt i32 %76, %72
  br i1 %.not49, label %79, label %77

77:                                               ; preds = %74, %71
  %78 = load i8, ptr %18, align 1, !tbaa !66
  br label %.loopexit

79:                                               ; preds = %74
  %80 = load i32, ptr %17, align 8, !tbaa !40
  %81 = icmp sgt i32 %80, 0
  br i1 %81, label %.lr.ph.i56, label %._crit_edge.thread.i55

.lr.ph.i56:                                       ; preds = %79
  %wide.trip.count.i57 = zext nneg i32 %80 to i64
  br label %82

82:                                               ; preds = %85, %.lr.ph.i56
  %indvars.iv.i58 = phi i64 [ 0, %.lr.ph.i56 ], [ %indvars.iv.next.i59, %85 ]
  %83 = getelementptr inbounds nuw %struct.Para, ptr %75, i64 %indvars.iv.i58
  %84 = load i32, ptr %83, align 4, !tbaa !42
  %.not63 = icmp slt i32 %84, %72
  br i1 %.not63, label %85, label %87

85:                                               ; preds = %82
  %indvars.iv.next.i59 = add nuw nsw i64 %indvars.iv.i58, 1
  %exitcond.not.i60 = icmp eq i64 %indvars.iv.next.i59, %wide.trip.count.i57
  br i1 %exitcond.not.i60, label %._crit_edge.thread.i55, label %82, !llvm.loop !44

._crit_edge.thread.i55:                           ; preds = %85, %79
  %86 = add nsw i32 %80, -1
  br label %ubidi_getParaLevelAtIndex_77.exit61

87:                                               ; preds = %82
  %88 = trunc nuw nsw i64 %indvars.iv.i58 to i32
  br label %ubidi_getParaLevelAtIndex_77.exit61

ubidi_getParaLevelAtIndex_77.exit61:              ; preds = %._crit_edge.thread.i55, %87
  %89 = phi i32 [ %88, %87 ], [ %86, %._crit_edge.thread.i55 ]
  %90 = sext i32 %89 to i64
  %91 = getelementptr inbounds %struct.Para, ptr %75, i64 %90, i32 1
  %92 = load i32, ptr %91, align 4, !tbaa !46
  %93 = trunc i32 %92 to i8
  br label %.loopexit

94:                                               ; preds = %69, %63
  %95 = icmp samesign ugt i64 %indvars.iv85, 1
  br i1 %95, label %.lr.ph, label %.loopexit64, !llvm.loop !139

.loopexit:                                        ; preds = %67, %77, %ubidi_getParaLevelAtIndex_77.exit61
  %.sink101 = phi i8 [ %78, %77 ], [ %93, %ubidi_getParaLevelAtIndex_77.exit61 ], [ 0, %67 ]
  %.4 = trunc i64 %indvars.iv.next86 to i32
  %96 = getelementptr inbounds nuw i8, ptr %5, i64 %indvars.iv.next86
  store i8 %.sink101, ptr %96, align 1, !tbaa !59
  %97 = icmp sgt i32 %.4, 0
  br i1 %97, label %.preheader, label %.loopexit64, !llvm.loop !140

.loopexit64:                                      ; preds = %.critedge, %.loopexit, %52, %94, %9, %1
  ret void
}